(dp0
csip
_unpickle_type
p1
(S'PyQt4.QtCore'
p2
S'QString'
p3
(V10
p4
tp5
tp6
Rp7
g1
(g2
S'QString'
p8
(V\u5317\u4eac\u745e\u6797\u683c\u79d1\u6280\u53d1\u5c55\u6709\u9650\u516c\u53f8
p9
tp10
tp11
Rp12
sg1
(g2
S'QString'
p13
(V11
p14
tp15
tp16
Rp17
g1
(g2
S'QString'
p18
(V\u79e6\u7687\u5c9b\u5e02\u96c5\u8c6a\u65b0\u6750\u6599\u79d1\u6280\u6709\u9650\u516c\u53f8
p19
tp20
tp21
Rp22
sg1
(g2
S'QString'
p23
(V12
p24
tp25
tp26
Rp27
g1
(g2
S'QString'
p28
(V\u5b9c\u660c\u4e1c\u9633\u5149\u706b\u529b\u53d1\u7535\u6709\u9650\u516c\u53f8
p29
tp30
tp31
Rp32
sg1
(g2
S'QString'
p33
(V13
p34
tp35
tp36
Rp37
g1
(g2
S'QString'
p38
(V\u830c\u5e73\u4fe1\u6e90\u94dd\u4e1a\u6709\u9650\u516c\u53f8
p39
tp40
tp41
Rp42
sg1
(g2
S'QString'
p43
(V14
p44
tp45
tp46
Rp47
g1
(g2
S'QString'
p48
(V\u5317\u4eac\u79d1\u6280\u5927\u5b66
p49
tp50
tp51
Rp52
sg1
(g2
S'QString'
p53
(V15
p54
tp55
tp56
Rp57
g1
(g2
S'QString'
p58
(V\u6cb3\u5357\u7701\u8fdc\u6d0b\u94dd\u4e1a\u6709\u9650\u516c\u53f8
p59
tp60
tp61
Rp62
sg1
(g2
S'QString'
p63
(V16
p64
tp65
tp66
Rp67
g1
(g2
S'QString'
p68
(V\u5e7f\u4e1c\u4e1c\u7535\u5316\u5e7f\u665f\u7a00\u571f\u9ad8\u65b0\u6750\u6599\u6709\u9650\u516c\u53f8
p69
tp70
tp71
Rp72
sg1
(g2
S'QString'
p73
(V17
p74
tp75
tp76
Rp77
g1
(g2
S'QString'
p78
(V\u4e0a\u6d77\u7136\u52e4\u5149\u7535\u79d1\u6280\u6709\u9650\u516c\u53f8
p79
tp80
tp81
Rp82
sg1
(g2
S'QString'
p83
(V18
p84
tp85
tp86
Rp87
g1
(g2
S'QString'
p88
(V\u8d63\u5dde\u76ca\u4e30\u4eea\u5668\u8bbe\u5907\u6709\u9650\u516c\u53f8
p89
tp90
tp91
Rp92
sg1
(g2
S'QString'
p93
(V1
p94
tp95
tp96
Rp97
g1
(g2
S'QString'
p98
(V\u56db\u4f1a\u5e02\u8fbe\u535a\u6587\u5b9e\u4e1a\u6709\u9650\u516c\u53f8
p99
tp100
tp101
Rp102
sg1
(g2
S'QString'
p103
(V3
p104
tp105
tp106
Rp107
g1
(g2
S'QString'
p108
(V\u5317\u4eac\u5de5\u4e1a\u5927\u5b66
p109
tp110
tp111
Rp112
sg1
(g2
S'QString'
p113
(V4
p114
tp115
tp116
Rp117
g1
(g2
S'QString'
p118
(V\u5fb7\u56fd
p119
tp120
tp121
Rp122
sg1
(g2
S'QString'
p123
(V5
p124
tp125
tp126
Rp127
g1
(g2
S'QString'
p128
(V\u5409\u6797\u5409\u6069\u954d\u4e1a\u80a1\u4efd\u6709\u9650\u516c\u53f8
p129
tp130
tp131
Rp132
sg1
(g2
S'QString'
p133
(V6
p134
tp135
tp136
Rp137
g1
(g2
S'QString'
p138
(Vindepth
p139
tp140
tp141
Rp142
sg1
(g2
S'QString'
p143
(V7
p144
tp145
tp146
Rp147
g1
(g2
S'QString'
p148
(V\u5408\u80a5\u667a\u9f99\u7535\u5b50\u4eea\u5668\u6709\u9650\u516c\u53f8
p149
tp150
tp151
Rp152
sg1
(g2
S'QString'
p153
(V8
p154
tp155
tp156
Rp157
g1
(g2
S'QString'
p158
(V\u65e0\u9521\u5174\u6f84\u534e\u65b0\u94a2\u6750\u6709\u9650\u516c\u53f8
p159
tp160
tp161
Rp162
sg1
(g2
S'QString'
p163
(V9
p164
tp165
tp166
Rp167
g1
(g2
S'QString'
p168
(Va
p169
tp170
tp171
Rp172
s.